; Function Attrs: mustprogress nounwind uwtable
define dso_local void @_ZN4node9JSUDPWrap11GetSockNameEv(ptr noalias sret(%"class.node::SocketAddress") align 8 %agg.result, ptr nocapture nonnull readnone align 8 %this) unnamed_addr #3 align 2 {
entry:
  store ptr getelementptr inbounds ({ [10 x ptr] }, ptr @_ZTVN4node13SocketAddressE, i64 0, i32 0, i64 2), ptr %agg.result, align 8
  %call = tail call noundef zeroext i1 @_ZN4node13SocketAddress3NewEiPKcjPS0_(i32 noundef 2, ptr noundef nonnull @.str, i32 noundef 1337, ptr noundef nonnull %agg.result) #13
  br i1 %call, label %nrvo.skipdtor, label %do.body4

do.body4:                                         ; preds = %entry
  tail call void @_ZN4node6AssertERKNS_13AssertionInfoE(ptr noundef nonnull align 8 dereferenceable(24) @_ZZN4node9JSUDPWrap11GetSockNameEvE4args) #13
  tail call void @abort() #14
  unreachable

nrvo.skipdtor:                                    ; preds = %entry
  ret void
}